; Function Attrs: nounwind uwtable
define dso_local void @slurmdb_destroy_federation_cond(ptr noundef %0) local_unnamed_addr #0 {
  %2 = alloca ptr, align 8
  call void @llvm.lifetime.start.p0(i64 8, ptr nonnull %2) #19
  store ptr %0, ptr %2, align 8
  %.not = icmp eq ptr %0, null
  br i1 %.not, label %10, label %3

3:                                                ; preds = %1
  %4 = load ptr, ptr %0, align 8
  %.not.i = icmp eq ptr %4, null
  br i1 %.not.i, label %6, label %5

5:                                                ; preds = %3
  tail call void @list_destroy(ptr noundef nonnull %4) #19
  br label %6

6:                                                ; preds = %5, %3
  store ptr null, ptr %0, align 8
  %7 = getelementptr inbounds nuw i8, ptr %0, i64 8
  %8 = load ptr, ptr %7, align 8
  %.not9.i = icmp eq ptr %8, null
  br i1 %.not9.i, label %_free_federation_cond_members.exit, label %9

9:                                                ; preds = %6
  tail call void @list_destroy(ptr noundef nonnull %8) #19
  br label %_free_federation_cond_members.exit

_free_federation_cond_members.exit:               ; preds = %6, %9
  store ptr null, ptr %7, align 8
  call void @slurm_xfree(ptr noundef nonnull %2) #19
  br label %10

10:                                               ; preds = %_free_federation_cond_members.exit, %1
  call void @llvm.lifetime.end.p0(i64 8, ptr nonnull %2) #19
  ret void
}